; Function Attrs: mustprogress uwtable
define void @_ZN5Ipopt14IpoptAlgorithm27ComputeAcceptableTrialPointEv(ptr noundef nonnull readonly align 8 captures(none) dereferenceable(200) %0) local_unnamed_addr #3 align 2 {
  %2 = getelementptr inbounds nuw i8, ptr %0, i64 16
  %3 = load ptr, ptr %2, align 8, !tbaa !53
  %4 = load ptr, ptr %3, align 8, !tbaa !8
  %5 = getelementptr inbounds nuw i8, ptr %4, i64 16
  %6 = load ptr, ptr %5, align 8
  tail call void (ptr, i32, i32, ptr, ...) %6(ptr noundef nonnull align 8 dereferenceable(40) %3, i32 noundef 6, i32 noundef 2, ptr noundef nonnull @.str.64)
  %7 = load ptr, ptr %2, align 8, !tbaa !53
  %8 = getelementptr inbounds nuw i8, ptr %0, i64 32
  %9 = load ptr, ptr %8, align 8, !tbaa !47
  %10 = getelementptr inbounds nuw i8, ptr %9, i64 68
  %11 = load i32, ptr %10, align 4, !tbaa !106
  %12 = load ptr, ptr %7, align 8, !tbaa !8
  %13 = getelementptr inbounds nuw i8, ptr %12, i64 16
  %14 = load ptr, ptr %13, align 8
  tail call void (ptr, i32, i32, ptr, ...) %14(ptr noundef nonnull align 8 dereferenceable(40) %7, i32 noundef 6, i32 noundef 2, ptr noundef nonnull @.str.74, i32 noundef %11)
  %15 = load ptr, ptr %2, align 8, !tbaa !53
  %16 = load ptr, ptr %15, align 8, !tbaa !8
  %17 = getelementptr inbounds nuw i8, ptr %16, i64 16
  %18 = load ptr, ptr %17, align 8
  tail call void (ptr, i32, i32, ptr, ...) %18(ptr noundef nonnull align 8 dereferenceable(40) %15, i32 noundef 6, i32 noundef 2, ptr noundef nonnull @.str.66)
  %19 = getelementptr inbounds nuw i8, ptr %0, i64 64
  %20 = load ptr, ptr %19, align 8, !tbaa !14
  %21 = load ptr, ptr %20, align 8, !tbaa !8
  %22 = getelementptr inbounds nuw i8, ptr %21, i64 24
  %23 = load ptr, ptr %22, align 8
  tail call void %23(ptr noundef nonnull align 8 dereferenceable(49) %20)
  ret void
}